; Function Attrs: nounwind uwtable
define internal void @spatial_compose_daub97i_dy_8bit(ptr noundef captures(none) %0, i32 noundef %1, i32 noundef %2, i32 noundef %3, i32 noundef %4) #0 {
  %6 = getelementptr inbounds nuw i8, ptr %0, i64 48
  %7 = load ptr, ptr %6, align 8, !tbaa !29
  %8 = getelementptr inbounds nuw i8, ptr %0, i64 56
  %9 = load ptr, ptr %8, align 8, !tbaa !29
  %10 = getelementptr inbounds nuw i8, ptr %0, i64 64
  %11 = load ptr, ptr %10, align 8, !tbaa !31
  %12 = getelementptr inbounds nuw i8, ptr %0, i64 72
  %13 = load ptr, ptr %12, align 8, !tbaa !32
  %14 = getelementptr inbounds nuw i8, ptr %0, i64 96
  %15 = sext i32 %1 to i64
  %16 = getelementptr inbounds %struct.DWTCompose, ptr %14, i64 %15
  %17 = getelementptr inbounds nuw i8, ptr %16, i64 64
  %18 = load i32, ptr %17, align 8, !tbaa !23
  %.sroa.0.0.copyload = load ptr, ptr %16, align 8, !tbaa !22
  %.sroa.5.0..sroa_idx = getelementptr inbounds nuw i8, ptr %16, i64 8
  %.sroa.5.0.copyload = load ptr, ptr %.sroa.5.0..sroa_idx, align 8, !tbaa !22
  %.sroa.8.0..sroa_idx = getelementptr inbounds nuw i8, ptr %16, i64 16
  %.sroa.8.0.copyload = load ptr, ptr %.sroa.8.0..sroa_idx, align 8, !tbaa !22
  %.sroa.12.0..sroa_idx = getelementptr inbounds nuw i8, ptr %16, i64 24
  %.sroa.12.0.copyload = load ptr, ptr %.sroa.12.0..sroa_idx, align 8, !tbaa !22
  %19 = load ptr, ptr %0, align 8, !tbaa !11
  %20 = add nsw i32 %18, 3
  %21 = add nsw i32 %3, -1
  %.not.i = icmp eq i32 %21, 0
  br i1 %.not.i, label %avpriv_mirror.exit56, label %.preheader

.preheader:                                       ; preds = %5
  %22 = icmp ugt i32 %20, %21
  br i1 %22, label %.lr.ph, label %avpriv_mirror.exit

.lr.ph:                                           ; preds = %.preheader
  %23 = shl nsw i32 %21, 1
  br label %24

24:                                               ; preds = %.lr.ph, %24
  %.09.i59 = phi i32 [ %20, %.lr.ph ], [ %.1.i, %24 ]
  %25 = icmp sgt i32 %.09.i59, 0
  %spec.select.i = select i1 %25, i32 %23, i32 0
  %.1.i = sub nsw i32 %spec.select.i, %.09.i59
  %26 = icmp ugt i32 %.1.i, %21
  br i1 %26, label %24, label %avpriv_mirror.exit, !llvm.loop !27

avpriv_mirror.exit:                               ; preds = %24, %.preheader
  %.09.i.lcssa = phi i32 [ %20, %.preheader ], [ %.1.i, %24 ]
  %27 = mul nsw i32 %.09.i.lcssa, %4
  %28 = sext i32 %27 to i64
  %29 = getelementptr inbounds i8, ptr %19, i64 %28
  %30 = add nsw i32 %18, 4
  %31 = icmp ugt i32 %30, %21
  br i1 %31, label %.lr.ph61, label %avpriv_mirror.exit56

.lr.ph61:                                         ; preds = %avpriv_mirror.exit
  %32 = shl nsw i32 %21, 1
  br label %33

33:                                               ; preds = %.lr.ph61, %33
  %.09.i5260 = phi i32 [ %30, %.lr.ph61 ], [ %.1.i55, %33 ]
  %34 = icmp sgt i32 %.09.i5260, 0
  %spec.select.i54 = select i1 %34, i32 %32, i32 0
  %.1.i55 = sub nsw i32 %spec.select.i54, %.09.i5260
  %35 = icmp ugt i32 %.1.i55, %21
  br i1 %35, label %33, label %avpriv_mirror.exit56, !llvm.loop !27

avpriv_mirror.exit56:                             ; preds = %33, %5, %avpriv_mirror.exit
  %.sroa.15.0 = phi ptr [ %29, %avpriv_mirror.exit ], [ %19, %5 ], [ %29, %33 ]
  %.0.i53 = phi i32 [ %30, %avpriv_mirror.exit ], [ 0, %5 ], [ %.1.i55, %33 ]
  %36 = mul nsw i32 %.0.i53, %4
  %37 = sext i32 %36 to i64
  %38 = getelementptr inbounds i8, ptr %19, i64 %37
  %39 = icmp ult i32 %20, %3
  br i1 %39, label %40, label %41

40:                                               ; preds = %avpriv_mirror.exit56
  tail call void %11(ptr noundef %.sroa.12.0.copyload, ptr noundef %.sroa.15.0, ptr noundef %38, i32 noundef %2) #6
  br label %41

41:                                               ; preds = %40, %avpriv_mirror.exit56
  %42 = add nsw i32 %18, 2
  %43 = icmp ult i32 %42, %3
  br i1 %43, label %44, label %45

44:                                               ; preds = %41
  tail call void %13(ptr noundef %.sroa.8.0.copyload, ptr noundef %.sroa.12.0.copyload, ptr noundef %.sroa.15.0, i32 noundef %2) #6
  br label %45

45:                                               ; preds = %44, %41
  %46 = add nsw i32 %18, 1
  %47 = icmp ult i32 %46, %3
  br i1 %47, label %48, label %49

48:                                               ; preds = %45
  tail call void %7(ptr noundef %.sroa.5.0.copyload, ptr noundef %.sroa.8.0.copyload, ptr noundef %.sroa.12.0.copyload, i32 noundef %2) #6
  br label %49

49:                                               ; preds = %48, %45
  %50 = icmp ult i32 %18, %3
  br i1 %50, label %51, label %52

51:                                               ; preds = %49
  tail call void %9(ptr noundef %.sroa.0.0.copyload, ptr noundef %.sroa.5.0.copyload, ptr noundef %.sroa.8.0.copyload, i32 noundef %2) #6
  br label %52

52:                                               ; preds = %51, %49
  %53 = add nsw i32 %18, -1
  %54 = icmp ult i32 %53, %3
  br i1 %54, label %55, label %60

55:                                               ; preds = %52
  %56 = getelementptr inbounds nuw i8, ptr %0, i64 88
  %57 = load ptr, ptr %56, align 8, !tbaa !33
  %58 = getelementptr inbounds nuw i8, ptr %0, i64 8
  %59 = load ptr, ptr %58, align 8, !tbaa !20
  tail call void %57(ptr noundef %.sroa.0.0.copyload, ptr noundef %59, i32 noundef %2) #6
  br label %60

60:                                               ; preds = %55, %52
  br i1 %50, label %61, label %66

61:                                               ; preds = %60
  %62 = getelementptr inbounds nuw i8, ptr %0, i64 88
  %63 = load ptr, ptr %62, align 8, !tbaa !33
  %64 = getelementptr inbounds nuw i8, ptr %0, i64 8
  %65 = load ptr, ptr %64, align 8, !tbaa !20
  tail call void %63(ptr noundef %.sroa.5.0.copyload, ptr noundef %65, i32 noundef %2) #6
  br label %66

66:                                               ; preds = %61, %60
  store ptr %.sroa.8.0.copyload, ptr %16, align 8, !tbaa !22
  store ptr %.sroa.12.0.copyload, ptr %.sroa.5.0..sroa_idx, align 8, !tbaa !22
  store ptr %.sroa.15.0, ptr %.sroa.8.0..sroa_idx, align 8, !tbaa !22
  store ptr %38, ptr %.sroa.12.0..sroa_idx, align 8, !tbaa !22
  %67 = load i32, ptr %17, align 8, !tbaa !23
  %68 = add nsw i32 %67, 2
  store i32 %68, ptr %17, align 8, !tbaa !23
  ret void
}